; ModuleID = '22/155.c'
source_filename = "22/155.c"
target datalayout = "e-m:e-p270:32:32-p271:32:32-p272:64:64-i64:64-f80:128-n8:16:32:64-S128"
target triple = "x86_64-pc-linux-gnu"

@.str = private unnamed_addr constant [5 x i8] c"%d%c\00", align 1
@.str.1 = private unnamed_addr constant [4 x i8] c"No\0A\00", align 1
@.str.2 = private unnamed_addr constant [4 x i8] c"%d\0A\00", align 1

; Function Attrs: noinline nounwind uwtable
define dso_local void @main() #0 {
  %1 = alloca i32, align 4
  %2 = alloca i32, align 4
  %3 = alloca [50 x i32], align 16
  %4 = alloca i32, align 4
  %5 = alloca i32, align 4
  %6 = alloca i32, align 4
  %7 = alloca [50 x i8], align 16
  store i32 0, i32* %2, align 4
  store i32 0, i32* %6, align 4
  br label %8

8:                                                ; preds = %18, %0
  %9 = load i32, i32* %2, align 4
  %10 = sext i32 %9 to i64
  %11 = getelementptr inbounds [50 x i32], [50 x i32]* %3, i64 0, i64 %10
  %12 = load i32, i32* %2, align 4
  %13 = sext i32 %12 to i64
  %14 = getelementptr inbounds [50 x i8], [50 x i8]* %7, i64 0, i64 %13
  %15 = call i32 (i8*, ...) @__isoc99_scanf(i8* getelementptr inbounds ([5 x i8], [5 x i8]* @.str, i64 0, i64 0), i32* %11, i8* %14)
  %16 = load i32, i32* %2, align 4
  %17 = add nsw i32 %16, 1
  store i32 %17, i32* %2, align 4
  br label %18

18:                                               ; preds = %8
  %19 = load i32, i32* %2, align 4
  %20 = sub nsw i32 %19, 1
  %21 = sext i32 %20 to i64
  %22 = getelementptr inbounds [50 x i8], [50 x i8]* %7, i64 0, i64 %21
  %23 = load i8, i8* %22, align 1
  %24 = sext i8 %23 to i32
  %25 = icmp eq i32 %24, 44
  br i1 %25, label %8, label %26

26:                                               ; preds = %18
  %27 = getelementptr inbounds [50 x i32], [50 x i32]* %3, i64 0, i64 0
  %28 = load i32, i32* %27, align 16
  store i32 %28, i32* %4, align 4
  store i32 0, i32* %1, align 4
  br label %29

29:                                               ; preds = %47, %26
  %30 = load i32, i32* %1, align 4
  %31 = load i32, i32* %2, align 4
  %32 = sub nsw i32 %31, 1
  %33 = icmp sle i32 %30, %32
  br i1 %33, label %34, label %50

34:                                               ; preds = %29
  %35 = load i32, i32* %1, align 4
  %36 = sext i32 %35 to i64
  %37 = getelementptr inbounds [50 x i32], [50 x i32]* %3, i64 0, i64 %36
  %38 = load i32, i32* %37, align 4
  %39 = load i32, i32* %4, align 4
  %40 = icmp sgt i32 %38, %39
  br i1 %40, label %41, label %46

41:                                               ; preds = %34
  %42 = load i32, i32* %1, align 4
  %43 = sext i32 %42 to i64
  %44 = getelementptr inbounds [50 x i32], [50 x i32]* %3, i64 0, i64 %43
  %45 = load i32, i32* %44, align 4
  store i32 %45, i32* %4, align 4
  br label %46

46:                                               ; preds = %41, %34
  br label %47

47:                                               ; preds = %46
  %48 = load i32, i32* %1, align 4
  %49 = add nsw i32 %48, 1
  store i32 %49, i32* %1, align 4
  br label %29

50:                                               ; preds = %29
  store i32 0, i32* %1, align 4
  br label %51

51:                                               ; preds = %70, %50
  %52 = load i32, i32* %1, align 4
  %53 = load i32, i32* %2, align 4
  %54 = sub nsw i32 %53, 1
  %55 = icmp sle i32 %52, %54
  br i1 %55, label %56, label %73

56:                                               ; preds = %51
  %57 = load i32, i32* %1, align 4
  %58 = sext i32 %57 to i64
  %59 = getelementptr inbounds [50 x i32], [50 x i32]* %3, i64 0, i64 %58
  %60 = load i32, i32* %59, align 4
  %61 = load i32, i32* %4, align 4
  %62 = icmp slt i32 %60, %61
  br i1 %62, label %63, label %66

63:                                               ; preds = %56
  %64 = load i32, i32* %6, align 4
  %65 = add nsw i32 %64, 1
  store i32 %65, i32* %6, align 4
  br label %69

66:                                               ; preds = %56
  %67 = load i32, i32* %6, align 4
  %68 = add nsw i32 %67, 0
  store i32 %68, i32* %6, align 4
  br label %69

69:                                               ; preds = %66, %63
  br label %70

70:                                               ; preds = %69
  %71 = load i32, i32* %1, align 4
  %72 = add nsw i32 %71, 1
  store i32 %72, i32* %1, align 4
  br label %51

73:                                               ; preds = %51
  %74 = load i32, i32* %6, align 4
  %75 = icmp eq i32 %74, 0
  br i1 %75, label %76, label %78

76:                                               ; preds = %73
  %77 = call i32 (i8*, ...) @printf(i8* getelementptr inbounds ([4 x i8], [4 x i8]* @.str.1, i64 0, i64 0))
  br label %132

78:                                               ; preds = %73
  store i32 0, i32* %1, align 4
  br label %79

79:                                               ; preds = %97, %78
  %80 = load i32, i32* %1, align 4
  %81 = load i32, i32* %2, align 4
  %82 = sub nsw i32 %81, 1
  %83 = icmp sle i32 %80, %82
  br i1 %83, label %84, label %100

84:                                               ; preds = %79
  %85 = load i32, i32* %1, align 4
  %86 = sext i32 %85 to i64
  %87 = getelementptr inbounds [50 x i32], [50 x i32]* %3, i64 0, i64 %86
  %88 = load i32, i32* %87, align 4
  %89 = load i32, i32* %4, align 4
  %90 = icmp slt i32 %88, %89
  br i1 %90, label %91, label %96

91:                                               ; preds = %84
  %92 = load i32, i32* %1, align 4
  %93 = sext i32 %92 to i64
  %94 = getelementptr inbounds [50 x i32], [50 x i32]* %3, i64 0, i64 %93
  %95 = load i32, i32* %94, align 4
  store i32 %95, i32* %5, align 4
  br label %100

96:                                               ; preds = %84
  br label %97

97:                                               ; preds = %96
  %98 = load i32, i32* %1, align 4
  %99 = add nsw i32 %98, 1
  store i32 %99, i32* %1, align 4
  br label %79

100:                                              ; preds = %91, %79
  store i32 0, i32* %1, align 4
  br label %101

101:                                              ; preds = %126, %100
  %102 = load i32, i32* %1, align 4
  %103 = load i32, i32* %2, align 4
  %104 = sub nsw i32 %103, 1
  %105 = icmp sle i32 %102, %104
  br i1 %105, label %106, label %129

106:                                              ; preds = %101
  %107 = load i32, i32* %1, align 4
  %108 = sext i32 %107 to i64
  %109 = getelementptr inbounds [50 x i32], [50 x i32]* %3, i64 0, i64 %108
  %110 = load i32, i32* %109, align 4
  %111 = load i32, i32* %5, align 4
  %112 = icmp sgt i32 %110, %111
  br i1 %112, label %113, label %125

113:                                              ; preds = %106
  %114 = load i32, i32* %1, align 4
  %115 = sext i32 %114 to i64
  %116 = getelementptr inbounds [50 x i32], [50 x i32]* %3, i64 0, i64 %115
  %117 = load i32, i32* %116, align 4
  %118 = load i32, i32* %4, align 4
  %119 = icmp slt i32 %117, %118
  br i1 %119, label %120, label %125

120:                                              ; preds = %113
  %121 = load i32, i32* %1, align 4
  %122 = sext i32 %121 to i64
  %123 = getelementptr inbounds [50 x i32], [50 x i32]* %3, i64 0, i64 %122
  %124 = load i32, i32* %123, align 4
  store i32 %124, i32* %5, align 4
  br label %125

125:                                              ; preds = %120, %113, %106
  br label %126

126:                                              ; preds = %125
  %127 = load i32, i32* %1, align 4
  %128 = add nsw i32 %127, 1
  store i32 %128, i32* %1, align 4
  br label %101

129:                                              ; preds = %101
  %130 = load i32, i32* %5, align 4
  %131 = call i32 (i8*, ...) @printf(i8* getelementptr inbounds ([4 x i8], [4 x i8]* @.str.2, i64 0, i64 0), i32 %130)
  br label %132

132:                                              ; preds = %129, %76
  ret void
}

declare dso_local i32 @__isoc99_scanf(i8*, ...) #1

declare dso_local i32 @printf(i8*, ...) #1


!llvm.module.flags = !{!0}
!llvm.ident = !{!1}

!0 = !{i32 1, !"wchar_size", i32 4}
!1 = !{!"clang version 10.0.0-4ubuntu1 "}
